; Function Attrs: inlinehint mustprogress nounwind uwtable
define internal fastcc void @_ZNSt4pairIPKN5Yosys5RTLIL4WireENS0_7hashlib4dictIPN12_GLOBAL__N_19FlowGraph4NodeEbNS5_8hash_opsISA_EEEEED2Ev(ptr noundef nonnull readonly align 8 captures(none) dereferenceable(64) %0) unnamed_addr #4 align 2 personality ptr @__gxx_personality_v0 {
  %2 = getelementptr inbounds nuw i8, ptr %0, i64 8
  %3 = getelementptr inbounds nuw i8, ptr %0, i64 32
  %.val.i = load ptr, ptr %3, align 8
  %.not.i.i.i.i = icmp eq ptr %.val.i, null
  br i1 %.not.i.i.i.i, label %_ZNSt6vectorIN5Yosys7hashlib4dictIPN12_GLOBAL__N_19FlowGraph4NodeEbNS1_8hash_opsIS6_EEE7entry_tESaISA_EED2Ev.exit.i, label %4

4:                                                ; preds = %1
  %5 = getelementptr inbounds nuw i8, ptr %0, i64 48
  %.val1.i = load ptr, ptr %5, align 8
  %6 = ptrtoint ptr %.val1.i to i64
  %7 = ptrtoint ptr %.val.i to i64
  %8 = sub i64 %6, %7
  tail call void @_ZdlPvm(ptr noundef nonnull %.val.i, i64 noundef %8) #35
  br label %_ZNSt6vectorIN5Yosys7hashlib4dictIPN12_GLOBAL__N_19FlowGraph4NodeEbNS1_8hash_opsIS6_EEE7entry_tESaISA_EED2Ev.exit.i

_ZNSt6vectorIN5Yosys7hashlib4dictIPN12_GLOBAL__N_19FlowGraph4NodeEbNS1_8hash_opsIS6_EEE7entry_tESaISA_EED2Ev.exit.i: ; preds = %4, %1
  %9 = load ptr, ptr %2, align 8, !tbaa !217
  %.not.i.i.i2.i = icmp eq ptr %9, null
  br i1 %.not.i.i.i2.i, label %_ZN5Yosys7hashlib4dictIPN12_GLOBAL__N_19FlowGraph4NodeEbNS0_8hash_opsIS5_EEED2Ev.exit, label %10

10:                                               ; preds = %_ZNSt6vectorIN5Yosys7hashlib4dictIPN12_GLOBAL__N_19FlowGraph4NodeEbNS1_8hash_opsIS6_EEE7entry_tESaISA_EED2Ev.exit.i
  %11 = getelementptr inbounds nuw i8, ptr %0, i64 24
  %12 = load ptr, ptr %11, align 8, !tbaa !425
  %13 = ptrtoint ptr %12 to i64
  %14 = ptrtoint ptr %9 to i64
  %15 = sub i64 %13, %14
  tail call void @_ZdlPvm(ptr noundef nonnull %9, i64 noundef %15) #35
  br label %_ZN5Yosys7hashlib4dictIPN12_GLOBAL__N_19FlowGraph4NodeEbNS0_8hash_opsIS5_EEED2Ev.exit

_ZN5Yosys7hashlib4dictIPN12_GLOBAL__N_19FlowGraph4NodeEbNS0_8hash_opsIS5_EEED2Ev.exit: ; preds = %_ZNSt6vectorIN5Yosys7hashlib4dictIPN12_GLOBAL__N_19FlowGraph4NodeEbNS1_8hash_opsIS6_EEE7entry_tESaISA_EED2Ev.exit.i, %10
  ret void
}